target datalayout = "e-m:e-p270:32:32-p271:32:32-p272:64:64-i64:64-i128:128-f80:128-n8:16:32:64-S128"
target triple = "x86_64-pc-linux-gnu"

%"struct.cv::legacy::tracking::TrackerBoosting::Params" = type { i32, float, float, i32, i32 }
%"class.cv::FileNode" = type { ptr, i64, i64 }

@.str = private unnamed_addr constant [15 x i8] c"numClassifiers\00", align 1
@.str.1 = private unnamed_addr constant [8 x i8] c"overlap\00", align 1
@.str.2 = private unnamed_addr constant [20 x i8] c"samplerSearchFactor\00", align 1
@.str.3 = private unnamed_addr constant [14 x i8] c"iterationInit\00", align 1
@.str.4 = private unnamed_addr constant [13 x i8] c"searchFactor\00", align 1

; Function Attrs: mustprogress uwtable
define void @_ZN2cv6legacy8tracking15TrackerBoosting6Params4readERKNS_8FileNodeE(ptr noundef nonnull align 4 dereferenceable(20) %0, ptr noundef nonnull align 8 dereferenceable(24) %1) #5 align 2 {
  %3 = alloca ptr, align 8
  %4 = alloca ptr, align 8
  %5 = alloca %"class.cv::FileNode", align 8
  %6 = alloca %"class.cv::FileNode", align 8
  %7 = alloca %"class.cv::FileNode", align 8
  %8 = alloca %"class.cv::FileNode", align 8
  %9 = alloca %"class.cv::FileNode", align 8
  store ptr %0, ptr %3, align 8, !tbaa !3
  store ptr %1, ptr %4, align 8, !tbaa !16
  %10 = load ptr, ptr %3, align 8
  call void @llvm.lifetime.start.p0(i64 24, ptr %5) #3
  %11 = load ptr, ptr %4, align 8, !tbaa !16
  call void @_ZNK2cv8FileNodeixEPKc(ptr dead_on_unwind writable sret(%"class.cv::FileNode") align 8 %5, ptr noundef nonnull align 8 dereferenceable(24) %11, ptr noundef @.str)
  %12 = call noundef i32 @_ZNK2cv8FileNodecviEv(ptr noundef nonnull align 8 dereferenceable(24) %5)
  %13 = getelementptr inbounds nuw %"struct.cv::legacy::tracking::TrackerBoosting::Params", ptr %10, i32 0, i32 0
  store i32 %12, ptr %13, align 4, !tbaa !8
  call void @llvm.lifetime.end.p0(i64 24, ptr %5) #3
  call void @llvm.lifetime.start.p0(i64 24, ptr %6) #3
  %14 = load ptr, ptr %4, align 8, !tbaa !16
  call void @_ZNK2cv8FileNodeixEPKc(ptr dead_on_unwind writable sret(%"class.cv::FileNode") align 8 %6, ptr noundef nonnull align 8 dereferenceable(24) %14, ptr noundef @.str.1)
  %15 = call noundef float @_ZNK2cv8FileNodecvfEv(ptr noundef nonnull align 8 dereferenceable(24) %6)
  %16 = getelementptr inbounds nuw %"struct.cv::legacy::tracking::TrackerBoosting::Params", ptr %10, i32 0, i32 1
  store float %15, ptr %16, align 4, !tbaa !12
  call void @llvm.lifetime.end.p0(i64 24, ptr %6) #3
  call void @llvm.lifetime.start.p0(i64 24, ptr %7) #3
  %17 = load ptr, ptr %4, align 8, !tbaa !16
  call void @_ZNK2cv8FileNodeixEPKc(ptr dead_on_unwind writable sret(%"class.cv::FileNode") align 8 %7, ptr noundef nonnull align 8 dereferenceable(24) %17, ptr noundef @.str.2)
  %18 = call noundef float @_ZNK2cv8FileNodecvfEv(ptr noundef nonnull align 8 dereferenceable(24) %7)
  %19 = getelementptr inbounds nuw %"struct.cv::legacy::tracking::TrackerBoosting::Params", ptr %10, i32 0, i32 2
  store float %18, ptr %19, align 4, !tbaa !13
  call void @llvm.lifetime.end.p0(i64 24, ptr %7) #3
  call void @llvm.lifetime.start.p0(i64 24, ptr %8) #3
  %20 = load ptr, ptr %4, align 8, !tbaa !16
  call void @_ZNK2cv8FileNodeixEPKc(ptr dead_on_unwind writable sret(%"class.cv::FileNode") align 8 %8, ptr noundef nonnull align 8 dereferenceable(24) %20, ptr noundef @.str.3)
  %21 = call noundef i32 @_ZNK2cv8FileNodecviEv(ptr noundef nonnull align 8 dereferenceable(24) %8)
  %22 = getelementptr inbounds nuw %"struct.cv::legacy::tracking::TrackerBoosting::Params", ptr %10, i32 0, i32 3
  store i32 %21, ptr %22, align 4, !tbaa !14
  call void @llvm.lifetime.end.p0(i64 24, ptr %8) #3
  call void @llvm.lifetime.start.p0(i64 24, ptr %9) #3
  %23 = load ptr, ptr %4, align 8, !tbaa !16
  call void @_ZNK2cv8FileNodeixEPKc(ptr dead_on_unwind writable sret(%"class.cv::FileNode") align 8 %9, ptr noundef nonnull align 8 dereferenceable(24) %23, ptr noundef @.str.4)
  %24 = call noundef float @_ZNK2cv8FileNodecvfEv(ptr noundef nonnull align 8 dereferenceable(24) %9)
  %25 = getelementptr inbounds nuw %"struct.cv::legacy::tracking::TrackerBoosting::Params", ptr %10, i32 0, i32 2
  store float %24, ptr %25, align 4, !tbaa !13
  call void @llvm.lifetime.end.p0(i64 24, ptr %9) #3
  ret void
}