; Function Attrs: mustprogress uwtable
define void @_ZN2cv6legacy8tracking15TrackerBoosting6Params4readERKNS_8FileNodeE(ptr noundef nonnull writeonly align 4 captures(none) dereferenceable(20) initializes((0, 16)) %0, ptr noundef nonnull align 8 dereferenceable(24) %1) local_unnamed_addr #4 align 2 {
  %3 = alloca %"class.cv::FileNode", align 8
  %4 = alloca %"class.cv::FileNode", align 8
  %5 = alloca %"class.cv::FileNode", align 8
  %6 = alloca %"class.cv::FileNode", align 8
  %7 = alloca %"class.cv::FileNode", align 8
  call void @llvm.lifetime.start.p0(i64 24, ptr nonnull %3) #23
  call void @_ZNK2cv8FileNodeixEPKc(ptr dead_on_unwind nonnull writable sret(%"class.cv::FileNode") align 8 %3, ptr noundef nonnull align 8 dereferenceable(24) %1, ptr noundef nonnull @.str)
  %8 = call noundef i32 @_ZNK2cv8FileNodecviEv(ptr noundef nonnull align 8 dereferenceable(24) %3)
  store i32 %8, ptr %0, align 4, !tbaa !3
  call void @llvm.lifetime.end.p0(i64 24, ptr nonnull %3) #23
  call void @llvm.lifetime.start.p0(i64 24, ptr nonnull %4) #23
  call void @_ZNK2cv8FileNodeixEPKc(ptr dead_on_unwind nonnull writable sret(%"class.cv::FileNode") align 8 %4, ptr noundef nonnull align 8 dereferenceable(24) %1, ptr noundef nonnull @.str.1)
  %9 = call noundef float @_ZNK2cv8FileNodecvfEv(ptr noundef nonnull align 8 dereferenceable(24) %4)
  %10 = getelementptr inbounds nuw i8, ptr %0, i64 4
  store float %9, ptr %10, align 4, !tbaa !9
  call void @llvm.lifetime.end.p0(i64 24, ptr nonnull %4) #23
  call void @llvm.lifetime.start.p0(i64 24, ptr nonnull %5) #23
  call void @_ZNK2cv8FileNodeixEPKc(ptr dead_on_unwind nonnull writable sret(%"class.cv::FileNode") align 8 %5, ptr noundef nonnull align 8 dereferenceable(24) %1, ptr noundef nonnull @.str.2)
  %11 = call noundef float @_ZNK2cv8FileNodecvfEv(ptr noundef nonnull align 8 dereferenceable(24) %5)
  %12 = getelementptr inbounds nuw i8, ptr %0, i64 8
  store float %11, ptr %12, align 4, !tbaa !10
  call void @llvm.lifetime.end.p0(i64 24, ptr nonnull %5) #23
  call void @llvm.lifetime.start.p0(i64 24, ptr nonnull %6) #23
  call void @_ZNK2cv8FileNodeixEPKc(ptr dead_on_unwind nonnull writable sret(%"class.cv::FileNode") align 8 %6, ptr noundef nonnull align 8 dereferenceable(24) %1, ptr noundef nonnull @.str.3)
  %13 = call noundef i32 @_ZNK2cv8FileNodecviEv(ptr noundef nonnull align 8 dereferenceable(24) %6)
  %14 = getelementptr inbounds nuw i8, ptr %0, i64 12
  store i32 %13, ptr %14, align 4, !tbaa !11
  call void @llvm.lifetime.end.p0(i64 24, ptr nonnull %6) #23
  call void @llvm.lifetime.start.p0(i64 24, ptr nonnull %7) #23
  call void @_ZNK2cv8FileNodeixEPKc(ptr dead_on_unwind nonnull writable sret(%"class.cv::FileNode") align 8 %7, ptr noundef nonnull align 8 dereferenceable(24) %1, ptr noundef nonnull @.str.4)
  %15 = call noundef float @_ZNK2cv8FileNodecvfEv(ptr noundef nonnull align 8 dereferenceable(24) %7)
  store float %15, ptr %12, align 4, !tbaa !10
  call void @llvm.lifetime.end.p0(i64 24, ptr nonnull %7) #23
  ret void
}